target datalayout = "e-m:e-p270:32:32-p271:32:32-p272:64:64-i64:64-i128:128-f80:128-n8:16:32:64-S128"
target triple = "x86_64-pc-linux-gnu"

%struct.Variable = type { ptr, ptr, %struct.PgBenchValue }
%struct.PgBenchValue = type { i32, %union.anon }
%union.anon = type { i64 }

; Function Attrs: nounwind uwtable
define internal zeroext i1 @putVariableValue(ptr noundef %0, ptr noundef %1, ptr noundef %2, ptr noundef %3) #0 {
  %5 = alloca i1, align 1
  %6 = alloca ptr, align 8
  %7 = alloca ptr, align 8
  %8 = alloca ptr, align 8
  %9 = alloca ptr, align 8
  %10 = alloca ptr, align 8
  %11 = alloca i32, align 4
  store ptr %0, ptr %6, align 8
  store ptr %1, ptr %7, align 8
  store ptr %2, ptr %8, align 8
  store ptr %3, ptr %9, align 8
  call void @llvm.lifetime.start.p0(i64 8, ptr %10) #14
  %12 = load ptr, ptr %6, align 8
  %13 = load ptr, ptr %7, align 8
  %14 = load ptr, ptr %8, align 8
  %15 = call ptr @lookupCreateVariable(ptr noundef %12, ptr noundef %13, ptr noundef %14)
  store ptr %15, ptr %10, align 8
  %16 = load ptr, ptr %10, align 8
  %17 = icmp ne ptr %16, null
  br i1 %17, label %19, label %18

18:                                               ; preds = %4
  store i1 false, ptr %5, align 1
  store i32 1, ptr %11, align 4
  br label %28

19:                                               ; preds = %4
  %20 = load ptr, ptr %10, align 8
  %21 = getelementptr inbounds nuw %struct.Variable, ptr %20, i32 0, i32 1
  %22 = load ptr, ptr %21, align 8
  call void @free(ptr noundef %22) #14
  %23 = load ptr, ptr %10, align 8
  %24 = getelementptr inbounds nuw %struct.Variable, ptr %23, i32 0, i32 1
  store ptr null, ptr %24, align 8
  %25 = load ptr, ptr %10, align 8
  %26 = getelementptr inbounds nuw %struct.Variable, ptr %25, i32 0, i32 2
  %27 = load ptr, ptr %9, align 8
  call void @llvm.memcpy.p0.p0.i64(ptr align 8 %26, ptr align 8 %27, i64 16, i1 false)
  store i1 true, ptr %5, align 1
  store i32 1, ptr %11, align 4
  br label %28

28:                                               ; preds = %19, %18
  call void @llvm.lifetime.end.p0(i64 8, ptr %10) #14
  %29 = load i1, ptr %5, align 1
  ret i1 %29
}

; Function Attrs: nounwind uwtable
define internal void @setIntValue(ptr noundef %0, i64 noundef %1) #0 {
  %3 = alloca ptr, align 8
  %4 = alloca i64, align 8
  store ptr %0, ptr %3, align 8
  store i64 %1, ptr %4, align 8
  %5 = load ptr, ptr %3, align 8
  %6 = getelementptr inbounds nuw %struct.PgBenchValue, ptr %5, i32 0, i32 0
  store i32 2, ptr %6, align 8
  %7 = load i64, ptr %4, align 8
  %8 = load ptr, ptr %3, align 8
  %9 = getelementptr inbounds nuw %struct.PgBenchValue, ptr %8, i32 0, i32 1
  store i64 %7, ptr %9, align 8
  ret void
}

; Function Attrs: nounwind uwtable
define internal zeroext i1 @putVariableInt(ptr noundef %0, ptr noundef %1, ptr noundef %2, i64 noundef %3) #0 {
  %5 = alloca ptr, align 8
  %6 = alloca ptr, align 8
  %7 = alloca ptr, align 8
  %8 = alloca i64, align 8
  %9 = alloca %struct.PgBenchValue, align 8
  store ptr %0, ptr %5, align 8
  store ptr %1, ptr %6, align 8
  store ptr %2, ptr %7, align 8
  store i64 %3, ptr %8, align 8
  call void @llvm.lifetime.start.p0(i64 16, ptr %9) #14
  %10 = load i64, ptr %8, align 8
  call void @setIntValue(ptr noundef %9, i64 noundef %10)
  %11 = load ptr, ptr %5, align 8
  %12 = load ptr, ptr %6, align 8
  %13 = load ptr, ptr %7, align 8
  %14 = call zeroext i1 @putVariableValue(ptr noundef %11, ptr noundef %12, ptr noundef %13, ptr noundef %9)
  call void @llvm.lifetime.end.p0(i64 16, ptr %9) #14
  ret i1 %14
}