; Function Attrs: nounwind uwtable
define internal fastcc noundef zeroext i1 @putVariableInt(ptr noundef captures(none) %0, ptr noundef %1, ptr noundef %2, i64 noundef %3) unnamed_addr #0 {
  %5 = tail call fastcc ptr @lookupCreateVariable(ptr noundef %0, ptr noundef %1, ptr noundef %2)
  %.not.i = icmp ne ptr %5, null
  br i1 %.not.i, label %6, label %putVariableValue.exit

6:                                                ; preds = %4
  %7 = getelementptr inbounds nuw i8, ptr %5, i64 8
  %8 = load ptr, ptr %7, align 8
  tail call void @free(ptr noundef %8) #25
  store ptr null, ptr %7, align 8
  %9 = getelementptr inbounds nuw i8, ptr %5, i64 16
  store i32 2, ptr %9, align 8
  %.sroa.43.0..sroa_idx = getelementptr inbounds nuw i8, ptr %5, i64 24
  store i64 %3, ptr %.sroa.43.0..sroa_idx, align 8
  br label %putVariableValue.exit

putVariableValue.exit:                            ; preds = %4, %6
  ret i1 %.not.i
}